; ModuleID = '41/49.cpp'
source_filename = "41/49.cpp"
target datalayout = "e-m:e-p270:32:32-p271:32:32-p272:64:64-i64:64-f80:128-n8:16:32:64-S128"
target triple = "x86_64-pc-linux-gnu"

%"class.std::ios_base::Init" = type { i8 }
%"class.std::basic_ostream" = type { i32 (...)**, %"class.std::basic_ios" }
%"class.std::basic_ios" = type { %"class.std::ios_base", %"class.std::basic_ostream"*, i8, i8, %"class.std::basic_streambuf"*, %"class.std::ctype"*, %"class.std::num_put"*, %"class.std::num_get"* }
%"class.std::ios_base" = type { i32 (...)**, i64, i64, i32, i32, i32, %"struct.std::ios_base::_Callback_list"*, %"struct.std::ios_base::_Words", [8 x %"struct.std::ios_base::_Words"], i32, %"struct.std::ios_base::_Words"*, %"class.std::locale" }
%"struct.std::ios_base::_Callback_list" = type { %"struct.std::ios_base::_Callback_list"*, void (i32, %"class.std::ios_base"*, i32)*, i32, i32 }
%"struct.std::ios_base::_Words" = type { i8*, i64 }
%"class.std::locale" = type { %"class.std::locale::_Impl"* }
%"class.std::locale::_Impl" = type { i32, %"class.std::locale::facet"**, i64, %"class.std::locale::facet"**, i8** }
%"class.std::locale::facet" = type <{ i32 (...)**, i32, [4 x i8] }>
%"class.std::basic_streambuf" = type { i32 (...)**, i8*, i8*, i8*, i8*, i8*, i8*, %"class.std::locale" }
%"class.std::ctype" = type <{ %"class.std::locale::facet.base", [4 x i8], %struct.__locale_struct*, i8, [7 x i8], i32*, i32*, i16*, i8, [256 x i8], [256 x i8], i8, [6 x i8] }>
%"class.std::locale::facet.base" = type <{ i32 (...)**, i32 }>
%struct.__locale_struct = type { [13 x %struct.__locale_data*], i16*, i32*, i32*, [13 x i8*] }
%struct.__locale_data = type opaque
%"class.std::num_put" = type { %"class.std::locale::facet.base", [4 x i8] }
%"class.std::num_get" = type { %"class.std::locale::facet.base", [4 x i8] }

@_ZStL8__ioinit = internal global %"class.std::ios_base::Init" zeroinitializer, align 1
@__dso_handle = external hidden global i8
@_ZSt4cout = external dso_local global %"class.std::basic_ostream", align 8
@.str = private unnamed_addr constant [2 x i8] c" \00", align 1
@llvm.global_ctors = appending global [1 x { i32, void ()*, i8* }] [{ i32, void ()*, i8* } { i32 65535, void ()* @_GLOBAL__sub_I_49.cpp, i8* null }]

; Function Attrs: noinline uwtable
define internal void @__cxx_global_var_init() #0 section ".text.startup" {
  call void @_ZNSt8ios_base4InitC1Ev(%"class.std::ios_base::Init"* @_ZStL8__ioinit)
  %1 = call i32 @__cxa_atexit(void (i8*)* bitcast (void (%"class.std::ios_base::Init"*)* @_ZNSt8ios_base4InitD1Ev to void (i8*)*), i8* getelementptr inbounds (%"class.std::ios_base::Init", %"class.std::ios_base::Init"* @_ZStL8__ioinit, i32 0, i32 0), i8* @__dso_handle) #3
  ret void
}

declare dso_local void @_ZNSt8ios_base4InitC1Ev(%"class.std::ios_base::Init"*) unnamed_addr #1

; Function Attrs: nounwind
declare dso_local void @_ZNSt8ios_base4InitD1Ev(%"class.std::ios_base::Init"*) unnamed_addr #2

; Function Attrs: nounwind
declare dso_local i32 @__cxa_atexit(void (i8*)*, i8*, i8*) #3

; Function Attrs: noinline norecurse uwtable
define dso_local i32 @main() #4 {
  %1 = alloca i32, align 4
  %2 = alloca i32, align 4
  %3 = alloca i32, align 4
  %4 = alloca i32, align 4
  %5 = alloca i32, align 4
  %6 = alloca i32, align 4
  %7 = alloca [6 x i32], align 16
  store i32 0, i32* %1, align 4
  store i32 1, i32* %2, align 4
  br label %8

8:                                                ; preds = %149, %0
  %9 = load i32, i32* %2, align 4
  %10 = icmp slt i32 %9, 6
  br i1 %10, label %11, label %152

11:                                               ; preds = %8
  store i32 1, i32* %3, align 4
  br label %12

12:                                               ; preds = %145, %11
  %13 = load i32, i32* %3, align 4
  %14 = icmp slt i32 %13, 6
  br i1 %14, label %15, label %148

15:                                               ; preds = %12
  %16 = load i32, i32* %3, align 4
  %17 = load i32, i32* %2, align 4
  %18 = icmp eq i32 %16, %17
  br i1 %18, label %19, label %20

19:                                               ; preds = %15
  br label %145

20:                                               ; preds = %15
  store i32 1, i32* %4, align 4
  br label %21

21:                                               ; preds = %141, %20
  %22 = load i32, i32* %4, align 4
  %23 = icmp slt i32 %22, 6
  br i1 %23, label %24, label %144

24:                                               ; preds = %21
  %25 = load i32, i32* %4, align 4
  %26 = load i32, i32* %2, align 4
  %27 = icmp eq i32 %25, %26
  br i1 %27, label %32, label %28

28:                                               ; preds = %24
  %29 = load i32, i32* %4, align 4
  %30 = load i32, i32* %3, align 4
  %31 = icmp eq i32 %29, %30
  br i1 %31, label %32, label %33

32:                                               ; preds = %28, %24
  br label %141

33:                                               ; preds = %28
  store i32 1, i32* %5, align 4
  br label %34

34:                                               ; preds = %137, %33
  %35 = load i32, i32* %5, align 4
  %36 = icmp slt i32 %35, 6
  br i1 %36, label %37, label %140

37:                                               ; preds = %34
  %38 = load i32, i32* %5, align 4
  %39 = load i32, i32* %2, align 4
  %40 = icmp eq i32 %38, %39
  br i1 %40, label %49, label %41

41:                                               ; preds = %37
  %42 = load i32, i32* %5, align 4
  %43 = load i32, i32* %3, align 4
  %44 = icmp eq i32 %42, %43
  br i1 %44, label %49, label %45

45:                                               ; preds = %41
  %46 = load i32, i32* %5, align 4
  %47 = load i32, i32* %4, align 4
  %48 = icmp eq i32 %46, %47
  br i1 %48, label %49, label %50

49:                                               ; preds = %45, %41, %37
  br label %137

50:                                               ; preds = %45
  %51 = load i32, i32* %2, align 4
  %52 = sub nsw i32 15, %51
  %53 = load i32, i32* %3, align 4
  %54 = sub nsw i32 %52, %53
  %55 = load i32, i32* %4, align 4
  %56 = sub nsw i32 %54, %55
  %57 = load i32, i32* %5, align 4
  %58 = sub nsw i32 %56, %57
  store i32 %58, i32* %6, align 4
  %59 = load i32, i32* %6, align 4
  %60 = icmp eq i32 %59, 1
  %61 = zext i1 %60 to i32
  %62 = load i32, i32* %2, align 4
  %63 = sext i32 %62 to i64
  %64 = getelementptr inbounds [6 x i32], [6 x i32]* %7, i64 0, i64 %63
  store i32 %61, i32* %64, align 4
  %65 = load i32, i32* %3, align 4
  %66 = icmp eq i32 %65, 2
  %67 = zext i1 %66 to i32
  %68 = load i32, i32* %3, align 4
  %69 = sext i32 %68 to i64
  %70 = getelementptr inbounds [6 x i32], [6 x i32]* %7, i64 0, i64 %69
  store i32 %67, i32* %70, align 4
  %71 = load i32, i32* %2, align 4
  %72 = icmp eq i32 %71, 5
  %73 = zext i1 %72 to i32
  %74 = load i32, i32* %4, align 4
  %75 = sext i32 %74 to i64
  %76 = getelementptr inbounds [6 x i32], [6 x i32]* %7, i64 0, i64 %75
  store i32 %73, i32* %76, align 4
  %77 = load i32, i32* %4, align 4
  %78 = icmp ne i32 %77, 1
  %79 = zext i1 %78 to i32
  %80 = load i32, i32* %5, align 4
  %81 = sext i32 %80 to i64
  %82 = getelementptr inbounds [6 x i32], [6 x i32]* %7, i64 0, i64 %81
  store i32 %79, i32* %82, align 4
  %83 = load i32, i32* %5, align 4
  %84 = icmp eq i32 %83, 1
  %85 = zext i1 %84 to i32
  %86 = load i32, i32* %6, align 4
  %87 = sext i32 %86 to i64
  %88 = getelementptr inbounds [6 x i32], [6 x i32]* %7, i64 0, i64 %87
  store i32 %85, i32* %88, align 4
  %89 = load i32, i32* %6, align 4
  %90 = icmp ne i32 %89, 2
  br i1 %90, label %91, label %94

91:                                               ; preds = %50
  %92 = load i32, i32* %6, align 4
  %93 = icmp ne i32 %92, 3
  br label %94

94:                                               ; preds = %91, %50
  %95 = phi i1 [ false, %50 ], [ %93, %91 ]
  %96 = zext i1 %95 to i32
  %97 = getelementptr inbounds [6 x i32], [6 x i32]* %7, i64 0, i64 0
  store i32 %96, i32* %97, align 16
  %98 = getelementptr inbounds [6 x i32], [6 x i32]* %7, i64 0, i64 0
  %99 = load i32, i32* %98, align 16
  %100 = icmp eq i32 %99, 1
  br i1 %100, label %101, label %136

101:                                              ; preds = %94
  %102 = getelementptr inbounds [6 x i32], [6 x i32]* %7, i64 0, i64 1
  %103 = load i32, i32* %102, align 4
  %104 = icmp eq i32 %103, 1
  br i1 %104, label %105, label %136

105:                                              ; preds = %101
  %106 = getelementptr inbounds [6 x i32], [6 x i32]* %7, i64 0, i64 2
  %107 = load i32, i32* %106, align 8
  %108 = icmp eq i32 %107, 1
  br i1 %108, label %109, label %136

109:                                              ; preds = %105
  %110 = getelementptr inbounds [6 x i32], [6 x i32]* %7, i64 0, i64 3
  %111 = load i32, i32* %110, align 4
  %112 = icmp eq i32 %111, 0
  br i1 %112, label %113, label %136

113:                                              ; preds = %109
  %114 = getelementptr inbounds [6 x i32], [6 x i32]* %7, i64 0, i64 4
  %115 = load i32, i32* %114, align 16
  %116 = icmp eq i32 %115, 0
  br i1 %116, label %117, label %136

117:                                              ; preds = %113
  %118 = getelementptr inbounds [6 x i32], [6 x i32]* %7, i64 0, i64 5
  %119 = load i32, i32* %118, align 4
  %120 = icmp eq i32 %119, 0
  br i1 %120, label %121, label %136

121:                                              ; preds = %117
  %122 = load i32, i32* %2, align 4
  %123 = call dereferenceable(272) %"class.std::basic_ostream"* @_ZNSolsEi(%"class.std::basic_ostream"* @_ZSt4cout, i32 %122)
  %124 = call dereferenceable(272) %"class.std::basic_ostream"* @_ZStlsISt11char_traitsIcEERSt13basic_ostreamIcT_ES5_PKc(%"class.std::basic_ostream"* dereferenceable(272) %123, i8* getelementptr inbounds ([2 x i8], [2 x i8]* @.str, i64 0, i64 0))
  %125 = load i32, i32* %3, align 4
  %126 = call dereferenceable(272) %"class.std::basic_ostream"* @_ZNSolsEi(%"class.std::basic_ostream"* %124, i32 %125)
  %127 = call dereferenceable(272) %"class.std::basic_ostream"* @_ZStlsISt11char_traitsIcEERSt13basic_ostreamIcT_ES5_PKc(%"class.std::basic_ostream"* dereferenceable(272) %126, i8* getelementptr inbounds ([2 x i8], [2 x i8]* @.str, i64 0, i64 0))
  %128 = load i32, i32* %4, align 4
  %129 = call dereferenceable(272) %"class.std::basic_ostream"* @_ZNSolsEi(%"class.std::basic_ostream"* %127, i32 %128)
  %130 = call dereferenceable(272) %"class.std::basic_ostream"* @_ZStlsISt11char_traitsIcEERSt13basic_ostreamIcT_ES5_PKc(%"class.std::basic_ostream"* dereferenceable(272) %129, i8* getelementptr inbounds ([2 x i8], [2 x i8]* @.str, i64 0, i64 0))
  %131 = load i32, i32* %5, align 4
  %132 = call dereferenceable(272) %"class.std::basic_ostream"* @_ZNSolsEi(%"class.std::basic_ostream"* %130, i32 %131)
  %133 = call dereferenceable(272) %"class.std::basic_ostream"* @_ZStlsISt11char_traitsIcEERSt13basic_ostreamIcT_ES5_PKc(%"class.std::basic_ostream"* dereferenceable(272) %132, i8* getelementptr inbounds ([2 x i8], [2 x i8]* @.str, i64 0, i64 0))
  %134 = load i32, i32* %6, align 4
  %135 = call dereferenceable(272) %"class.std::basic_ostream"* @_ZNSolsEi(%"class.std::basic_ostream"* %133, i32 %134)
  br label %136

136:                                              ; preds = %121, %117, %113, %109, %105, %101, %94
  br label %137

137:                                              ; preds = %136, %49
  %138 = load i32, i32* %5, align 4
  %139 = add nsw i32 %138, 1
  store i32 %139, i32* %5, align 4
  br label %34

140:                                              ; preds = %34
  br label %141

141:                                              ; preds = %140, %32
  %142 = load i32, i32* %4, align 4
  %143 = add nsw i32 %142, 1
  store i32 %143, i32* %4, align 4
  br label %21

144:                                              ; preds = %21
  br label %145

145:                                              ; preds = %144, %19
  %146 = load i32, i32* %3, align 4
  %147 = add nsw i32 %146, 1
  store i32 %147, i32* %3, align 4
  br label %12

148:                                              ; preds = %12
  br label %149

149:                                              ; preds = %148
  %150 = load i32, i32* %2, align 4
  %151 = add nsw i32 %150, 1
  store i32 %151, i32* %2, align 4
  br label %8

152:                                              ; preds = %8
  ret i32 0
}

declare dso_local dereferenceable(272) %"class.std::basic_ostream"* @_ZStlsISt11char_traitsIcEERSt13basic_ostreamIcT_ES5_PKc(%"class.std::basic_ostream"* dereferenceable(272), i8*) #1

declare dso_local dereferenceable(272) %"class.std::basic_ostream"* @_ZNSolsEi(%"class.std::basic_ostream"*, i32) #1

; Function Attrs: noinline uwtable
define internal void @_GLOBAL__sub_I_49.cpp() #0 section ".text.startup" {
  call void @__cxx_global_var_init()
  ret void
}


!llvm.module.flags = !{!0}
!llvm.ident = !{!1}

!0 = !{i32 1, !"wchar_size", i32 4}
!1 = !{!"clang version 10.0.0-4ubuntu1 "}
