; ModuleID = 'source-C-CXX/40/49.cpp'
source_filename = "source-C-CXX/40/49.cpp"
target datalayout = "e-m:e-p270:32:32-p271:32:32-p272:64:64-i64:64-f80:128-n8:16:32:64-S128"
target triple = "x86_64-pc-linux-gnu"

%"class.std::ios_base::Init" = type { i8 }
%"class.std::basic_ostream" = type { i32 (...)**, %"class.std::basic_ios" }
%"class.std::basic_ios" = type { %"class.std::ios_base", %"class.std::basic_ostream"*, i8, i8, %"class.std::basic_streambuf"*, %"class.std::ctype"*, %"class.std::num_put"*, %"class.std::num_get"* }
%"class.std::ios_base" = type { i32 (...)**, i64, i64, i32, i32, i32, %"struct.std::ios_base::_Callback_list"*, %"struct.std::ios_base::_Words", [8 x %"struct.std::ios_base::_Words"], i32, %"struct.std::ios_base::_Words"*, %"class.std::locale" }
%"struct.std::ios_base::_Callback_list" = type { %"struct.std::ios_base::_Callback_list"*, void (i32, %"class.std::ios_base"*, i32)*, i32, i32 }
%"struct.std::ios_base::_Words" = type { i8*, i64 }
%"class.std::locale" = type { %"class.std::locale::_Impl"* }
%"class.std::locale::_Impl" = type { i32, %"class.std::locale::facet"**, i64, %"class.std::locale::facet"**, i8** }
%"class.std::locale::facet" = type <{ i32 (...)**, i32, [4 x i8] }>
%"class.std::basic_streambuf" = type { i32 (...)**, i8*, i8*, i8*, i8*, i8*, i8*, %"class.std::locale" }
%"class.std::ctype" = type <{ %"class.std::locale::facet.base", [4 x i8], %struct.__locale_struct*, i8, [7 x i8], i32*, i32*, i16*, i8, [256 x i8], [256 x i8], i8, [6 x i8] }>
%"class.std::locale::facet.base" = type <{ i32 (...)**, i32 }>
%struct.__locale_struct = type { [13 x %struct.__locale_data*], i16*, i32*, i32*, [13 x i8*] }
%struct.__locale_data = type opaque
%"class.std::num_put" = type { %"class.std::locale::facet.base", [4 x i8] }
%"class.std::num_get" = type { %"class.std::locale::facet.base", [4 x i8] }

@_ZStL8__ioinit = internal global %"class.std::ios_base::Init" zeroinitializer, align 1
@__dso_handle = external hidden global i8
@_ZSt4cout = external global %"class.std::basic_ostream", align 8
@.str = private unnamed_addr constant [2 x i8] c" \00", align 1
@llvm.global_ctors = appending global [1 x { i32, void ()*, i8* }] [{ i32, void ()*, i8* } { i32 65535, void ()* @_GLOBAL__sub_I_49.cpp, i8* null }]

declare void @_ZNSt8ios_base4InitC1Ev(%"class.std::ios_base::Init"* nonnull align 1 dereferenceable(1)) unnamed_addr #0

; Function Attrs: nounwind
declare void @_ZNSt8ios_base4InitD1Ev(%"class.std::ios_base::Init"* nonnull align 1 dereferenceable(1)) unnamed_addr #1

; Function Attrs: nofree nounwind
declare i32 @__cxa_atexit(void (i8*)*, i8*, i8*) local_unnamed_addr #2

; Function Attrs: mustprogress norecurse sspstrong uwtable
define dso_local i32 @main() local_unnamed_addr #3 {
  %1 = alloca [6 x i32], align 16
  %2 = bitcast [6 x i32]* %1 to i8*
  call void @llvm.lifetime.start.p0i8(i64 24, i8* nonnull %2) #6
  %3 = getelementptr inbounds [6 x i32], [6 x i32]* %1, i64 0, i64 1
  %4 = getelementptr inbounds [6 x i32], [6 x i32]* %1, i64 0, i64 2
  %5 = getelementptr inbounds [6 x i32], [6 x i32]* %1, i64 0, i64 3
  %6 = getelementptr inbounds [6 x i32], [6 x i32]* %1, i64 0, i64 4
  %7 = getelementptr inbounds [6 x i32], [6 x i32]* %1, i64 0, i64 5
  br label %8

8:                                                ; preds = %0, %88
  %9 = phi i64 [ 1, %0 ], [ %89, %88 ]
  %10 = getelementptr inbounds [6 x i32], [6 x i32]* %1, i64 0, i64 %9
  %11 = icmp eq i64 %9, 5
  %12 = zext i1 %11 to i32
  %13 = trunc i64 %9 to i32
  br label %14

14:                                               ; preds = %8, %85
  %15 = phi i64 [ 1, %8 ], [ %86, %85 ]
  %16 = icmp eq i64 %15, %9
  br i1 %16, label %85, label %17

17:                                               ; preds = %14
  %18 = add nuw nsw i64 %9, %15
  %19 = icmp eq i64 %15, 2
  %20 = zext i1 %19 to i32
  %21 = getelementptr inbounds [6 x i32], [6 x i32]* %1, i64 0, i64 %15
  %22 = trunc i64 %15 to i32
  br label %23

23:                                               ; preds = %17, %82
  %24 = phi i64 [ 1, %17 ], [ %83, %82 ]
  %25 = icmp eq i64 %24, %9
  %26 = icmp eq i64 %24, %15
  %27 = select i1 %25, i1 true, i1 %26
  br i1 %27, label %82, label %28

28:                                               ; preds = %23
  %29 = add nuw nsw i64 %18, %24
  %30 = getelementptr inbounds [6 x i32], [6 x i32]* %1, i64 0, i64 %24
  %31 = icmp ne i64 %24, 1
  %32 = zext i1 %31 to i32
  %33 = trunc i64 %24 to i32
  br label %34

34:                                               ; preds = %28, %79
  %35 = phi i64 [ 1, %28 ], [ %80, %79 ]
  %36 = icmp eq i64 %35, %9
  %37 = icmp eq i64 %35, %15
  %38 = select i1 %36, i1 true, i1 %37
  %39 = icmp eq i64 %35, %24
  %40 = select i1 %38, i1 true, i1 %39
  br i1 %40, label %79, label %41

41:                                               ; preds = %34
  %42 = add nuw nsw i64 %29, %35
  %43 = sub nsw i64 15, %42
  %44 = icmp eq i64 %43, 1
  %45 = zext i1 %44 to i32
  store i32 %45, i32* %10, align 4, !tbaa !5
  store i32 %20, i32* %21, align 4, !tbaa !5
  store i32 %12, i32* %30, align 4, !tbaa !5
  %46 = getelementptr inbounds [6 x i32], [6 x i32]* %1, i64 0, i64 %35
  store i32 %32, i32* %46, align 4, !tbaa !5
  %47 = icmp eq i64 %35, 1
  %48 = zext i1 %47 to i32
  %49 = getelementptr inbounds [6 x i32], [6 x i32]* %1, i64 0, i64 %43
  store i32 %48, i32* %49, align 4, !tbaa !5
  %50 = trunc i64 %43 to i32
  %51 = and i32 %50, -2
  %52 = icmp ne i32 %51, 2
  %53 = load i32, i32* %3, align 4
  %54 = icmp eq i32 %53, 1
  %55 = select i1 %52, i1 %54, i1 false
  %56 = load i32, i32* %4, align 8
  %57 = icmp eq i32 %56, 1
  %58 = select i1 %55, i1 %57, i1 false
  %59 = load i32, i32* %5, align 4
  %60 = icmp eq i32 %59, 0
  %61 = select i1 %58, i1 %60, i1 false
  %62 = load i32, i32* %6, align 16
  %63 = icmp eq i32 %62, 0
  %64 = select i1 %61, i1 %63, i1 false
  %65 = load i32, i32* %7, align 4
  %66 = icmp eq i32 %65, 0
  %67 = select i1 %64, i1 %66, i1 false
  br i1 %67, label %68, label %79

68:                                               ; preds = %41
  %69 = tail call nonnull align 8 dereferenceable(8) %"class.std::basic_ostream"* @_ZNSolsEi(%"class.std::basic_ostream"* nonnull align 8 dereferenceable(8) @_ZSt4cout, i32 %13)
  %70 = tail call nonnull align 8 dereferenceable(8) %"class.std::basic_ostream"* @_ZSt16__ostream_insertIcSt11char_traitsIcEERSt13basic_ostreamIT_T0_ES6_PKS3_l(%"class.std::basic_ostream"* nonnull align 8 dereferenceable(8) %69, i8* nonnull getelementptr inbounds ([2 x i8], [2 x i8]* @.str, i64 0, i64 0), i64 1)
  %71 = tail call nonnull align 8 dereferenceable(8) %"class.std::basic_ostream"* @_ZNSolsEi(%"class.std::basic_ostream"* nonnull align 8 dereferenceable(8) %69, i32 %22)
  %72 = tail call nonnull align 8 dereferenceable(8) %"class.std::basic_ostream"* @_ZSt16__ostream_insertIcSt11char_traitsIcEERSt13basic_ostreamIT_T0_ES6_PKS3_l(%"class.std::basic_ostream"* nonnull align 8 dereferenceable(8) %71, i8* nonnull getelementptr inbounds ([2 x i8], [2 x i8]* @.str, i64 0, i64 0), i64 1)
  %73 = tail call nonnull align 8 dereferenceable(8) %"class.std::basic_ostream"* @_ZNSolsEi(%"class.std::basic_ostream"* nonnull align 8 dereferenceable(8) %71, i32 %33)
  %74 = tail call nonnull align 8 dereferenceable(8) %"class.std::basic_ostream"* @_ZSt16__ostream_insertIcSt11char_traitsIcEERSt13basic_ostreamIT_T0_ES6_PKS3_l(%"class.std::basic_ostream"* nonnull align 8 dereferenceable(8) %73, i8* nonnull getelementptr inbounds ([2 x i8], [2 x i8]* @.str, i64 0, i64 0), i64 1)
  %75 = trunc i64 %35 to i32
  %76 = tail call nonnull align 8 dereferenceable(8) %"class.std::basic_ostream"* @_ZNSolsEi(%"class.std::basic_ostream"* nonnull align 8 dereferenceable(8) %73, i32 %75)
  %77 = tail call nonnull align 8 dereferenceable(8) %"class.std::basic_ostream"* @_ZSt16__ostream_insertIcSt11char_traitsIcEERSt13basic_ostreamIT_T0_ES6_PKS3_l(%"class.std::basic_ostream"* nonnull align 8 dereferenceable(8) %76, i8* nonnull getelementptr inbounds ([2 x i8], [2 x i8]* @.str, i64 0, i64 0), i64 1)
  %78 = tail call nonnull align 8 dereferenceable(8) %"class.std::basic_ostream"* @_ZNSolsEi(%"class.std::basic_ostream"* nonnull align 8 dereferenceable(8) %76, i32 %50)
  br label %79

79:                                               ; preds = %41, %68, %34
  %80 = add nuw nsw i64 %35, 1
  %81 = icmp eq i64 %80, 6
  br i1 %81, label %82, label %34, !llvm.loop !9

82:                                               ; preds = %79, %23
  %83 = add nuw nsw i64 %24, 1
  %84 = icmp eq i64 %83, 6
  br i1 %84, label %85, label %23, !llvm.loop !11

85:                                               ; preds = %82, %14
  %86 = add nuw nsw i64 %15, 1
  %87 = icmp eq i64 %86, 6
  br i1 %87, label %88, label %14, !llvm.loop !12

88:                                               ; preds = %85
  %89 = add nuw nsw i64 %9, 1
  %90 = icmp eq i64 %89, 6
  br i1 %90, label %91, label %8, !llvm.loop !13

91:                                               ; preds = %88
  call void @llvm.lifetime.end.p0i8(i64 24, i8* nonnull %2) #6
  ret i32 0
}

; Function Attrs: argmemonly mustprogress nofree nosync nounwind willreturn
declare void @llvm.lifetime.start.p0i8(i64 immarg, i8* nocapture) #4

declare nonnull align 8 dereferenceable(8) %"class.std::basic_ostream"* @_ZNSolsEi(%"class.std::basic_ostream"* nonnull align 8 dereferenceable(8), i32) local_unnamed_addr #0

; Function Attrs: argmemonly mustprogress nofree nosync nounwind willreturn
declare void @llvm.lifetime.end.p0i8(i64 immarg, i8* nocapture) #4

declare nonnull align 8 dereferenceable(8) %"class.std::basic_ostream"* @_ZSt16__ostream_insertIcSt11char_traitsIcEERSt13basic_ostreamIT_T0_ES6_PKS3_l(%"class.std::basic_ostream"* nonnull align 8 dereferenceable(8), i8*, i64) local_unnamed_addr #0

; Function Attrs: sspstrong uwtable
define internal void @_GLOBAL__sub_I_49.cpp() #5 section ".text.startup" {
  tail call void @_ZNSt8ios_base4InitC1Ev(%"class.std::ios_base::Init"* nonnull align 1 dereferenceable(1) @_ZStL8__ioinit)
  %1 = tail call i32 @__cxa_atexit(void (i8*)* bitcast (void (%"class.std::ios_base::Init"*)* @_ZNSt8ios_base4InitD1Ev to void (i8*)*), i8* getelementptr inbounds (%"class.std::ios_base::Init", %"class.std::ios_base::Init"* @_ZStL8__ioinit, i64 0, i32 0), i8* nonnull @__dso_handle) #6
  ret void
}


!llvm.module.flags = !{!0, !1, !2, !3}
!llvm.ident = !{!4}

!0 = !{i32 1, !"wchar_size", i32 4}
!1 = !{i32 7, !"PIC Level", i32 2}
!2 = !{i32 7, !"PIE Level", i32 2}
!3 = !{i32 7, !"uwtable", i32 1}
!4 = !{!"clang version 13.0.0"}
!5 = !{!6, !6, i64 0}
!6 = !{!"int", !7, i64 0}
!7 = !{!"omnipotent char", !8, i64 0}
!8 = !{!"Simple C++ TBAA"}
!9 = distinct !{!9, !10}
!10 = !{!"llvm.loop.mustprogress"}
!11 = distinct !{!11, !10}
!12 = distinct !{!12, !10}
!13 = distinct !{!13, !10}
